; Function Attrs: nounwind sspstrong uwtable
define internal i64 @addrinfo_ip_address(i64 noundef %0) #0 {
  %2 = alloca i64, align 8
  %3 = tail call ptr @rb_check_typeddata(i64 noundef %0, ptr noundef nonnull @addrinfo_type) #21
  %.not.i = icmp eq ptr %3, null
  br i1 %.not.i, label %4, label %get_addrinfo.exit

4:                                                ; preds = %1
  %5 = load i64, ptr @rb_eTypeError, align 8, !tbaa !35
  tail call void (i64, ptr, ...) @rb_raise(i64 noundef %5, ptr noundef nonnull @.str.101) #23
  unreachable

get_addrinfo.exit:                                ; preds = %1
  %6 = getelementptr inbounds nuw i8, ptr %3, i64 28
  %7 = load i32, ptr %6, align 4, !tbaa !118
  %8 = icmp ugt i32 %7, 1
  br i1 %8, label %ai_get_afamily.exit, label %ai_get_afamily.exit.thread

ai_get_afamily.exit.thread:                       ; preds = %get_addrinfo.exit
  call void @llvm.lifetime.start.p0(i64 8, ptr nonnull %2) #21
  br label %12

ai_get_afamily.exit:                              ; preds = %get_addrinfo.exit
  %9 = getelementptr inbounds nuw i8, ptr %3, i64 32
  %10 = load i16, ptr %9, align 2, !tbaa !91
  call void @llvm.lifetime.start.p0(i64 8, ptr nonnull %2) #21
  %11 = and i16 %10, -9
  %or.cond = icmp eq i16 %11, 2
  br i1 %or.cond, label %14, label %12

12:                                               ; preds = %ai_get_afamily.exit.thread, %ai_get_afamily.exit
  %13 = load i64, ptr @rb_eSocket, align 8, !tbaa !35
  tail call void (i64, ptr, ...) @rb_raise(i64 noundef %13, ptr noundef nonnull @.str.121) #23
  unreachable

14:                                               ; preds = %ai_get_afamily.exit
  store i64 7, ptr %2, align 8, !tbaa !35
  %15 = call i64 @addrinfo_getnameinfo(i32 noundef 1, ptr noundef nonnull %2, i64 noundef %0)
  %16 = tail call i64 @rb_ary_entry(i64 noundef %15, i64 noundef 0) #24
  call void @llvm.lifetime.end.p0(i64 8, ptr nonnull %2) #21
  ret i64 %16
}